target datalayout = "e-m:e-p270:32:32-p271:32:32-p272:64:64-i64:64-i128:128-f80:128-n8:16:32:64-S128"
target triple = "x86_64-pc-linux-gnu"

%struct.H5HF_hdr_t = type { %struct.H5C_cache_entry_t, i32, i32, i8, i8, i8, i8, %struct.H5HF_dtable_t, i64, i64, i32, i64, i64, %struct.H5O_pline_t, i64, i32, i64, i64, i64, i64, i64, i64, i64, i64, i64, i64, i64, i32, ptr, i64, i8, i8, i8, ptr, i32, ptr, %struct.H5HF_block_iter_t, ptr, i64, i8, i8, i64, i8, i8, i8, i8 }
%struct.H5C_cache_entry_t = type { ptr, i64, i64, ptr, i8, ptr, i8, i8, i8, i8, i32, i8, i8, i8, i8, i8, i32, ptr, i32, i32, i32, i32, i32, i8, i8, ptr, ptr, ptr, ptr, ptr, ptr, i8, i32, i8, i64, ptr, i64, i64, i32, i8, i32, i32, i8, ptr, ptr, ptr }
%struct.H5HF_dtable_t = type { %struct.H5HF_dtable_cparam_t, i64, i32, i32, i32, i32, i32, i32, i32, i64, ptr, ptr, ptr, ptr }
%struct.H5HF_dtable_cparam_t = type { i32, i64, i64, i32, i32 }
%struct.H5O_pline_t = type { %struct.H5O_shared_t, i32, i64, i64, ptr }
%struct.H5O_shared_t = type { i32, ptr, i32, %union.anon }
%union.anon = type { %struct.H5O_mesg_loc_t }
%struct.H5O_mesg_loc_t = type { i32, i64 }
%struct.H5HF_block_iter_t = type { i8, ptr }
%struct.H5HF_iblock_cache_ud_t = type { ptr, ptr, ptr }
%struct.H5HF_parent_t = type { ptr, ptr, i32 }

@H5HF_init_g = external global i8, align 1
@H5_libterm_g = external global i8, align 1

; Function Attrs: nounwind uwtable
define internal i32 @H5HF__cache_iblock_get_initial_load_size(ptr noundef %0, ptr noundef %1) #0 {
  %3 = alloca ptr, align 8
  %4 = alloca ptr, align 8
  %5 = alloca ptr, align 8
  store ptr %0, ptr %3, align 8, !tbaa !3
  store ptr %1, ptr %4, align 8, !tbaa !7
  call void @llvm.lifetime.start.p0(i64 8, ptr %5) #8
  %6 = load ptr, ptr %3, align 8, !tbaa !3
  store ptr %6, ptr %5, align 8, !tbaa !108
  %7 = load i8, ptr @H5HF_init_g, align 1, !tbaa !11, !range !13, !noundef !14
  %8 = trunc i8 %7 to i1
  br i1 %8, label %13, label %9

9:                                                ; preds = %2
  %10 = load i8, ptr @H5_libterm_g, align 1, !tbaa !11, !range !13, !noundef !14
  %11 = trunc i8 %10 to i1
  %12 = xor i1 %11, true
  br label %13

13:                                               ; preds = %9, %2
  %14 = phi i1 [ true, %2 ], [ %12, %9 ]
  %15 = xor i1 %14, true
  %16 = xor i1 %15, true
  %17 = zext i1 %16 to i32
  %18 = sext i32 %17 to i64
  %19 = call i64 @llvm.expect.i64(i64 %18, i64 1)
  %20 = icmp ne i64 %19, 0
  br i1 %20, label %21, label %171

21:                                               ; preds = %13
  %22 = load ptr, ptr %5, align 8, !tbaa !108
  %23 = getelementptr inbounds nuw %struct.H5HF_iblock_cache_ud_t, ptr %22, i32 0, i32 0
  %24 = load ptr, ptr %23, align 8, !tbaa !110
  %25 = getelementptr inbounds nuw %struct.H5HF_parent_t, ptr %24, i32 0, i32 0
  %26 = load ptr, ptr %25, align 8, !tbaa !113
  %27 = getelementptr inbounds nuw %struct.H5HF_hdr_t, ptr %26, i32 0, i32 32
  %28 = load i8, ptr %27, align 2, !tbaa !39
  %29 = zext i8 %28 to i32
  %30 = add i32 9, %29
  %31 = load ptr, ptr %5, align 8, !tbaa !108
  %32 = getelementptr inbounds nuw %struct.H5HF_iblock_cache_ud_t, ptr %31, i32 0, i32 0
  %33 = load ptr, ptr %32, align 8, !tbaa !110
  %34 = getelementptr inbounds nuw %struct.H5HF_parent_t, ptr %33, i32 0, i32 0
  %35 = load ptr, ptr %34, align 8, !tbaa !113
  %36 = getelementptr inbounds nuw %struct.H5HF_hdr_t, ptr %35, i32 0, i32 43
  %37 = load i8, ptr %36, align 1, !tbaa !115
  %38 = zext i8 %37 to i32
  %39 = add i32 %30, %38
  %40 = load ptr, ptr %5, align 8, !tbaa !108
  %41 = getelementptr inbounds nuw %struct.H5HF_iblock_cache_ud_t, ptr %40, i32 0, i32 2
  %42 = load ptr, ptr %41, align 8, !tbaa !116
  %43 = load i32, ptr %42, align 4, !tbaa !43
  %44 = load ptr, ptr %5, align 8, !tbaa !108
  %45 = getelementptr inbounds nuw %struct.H5HF_iblock_cache_ud_t, ptr %44, i32 0, i32 0
  %46 = load ptr, ptr %45, align 8, !tbaa !110
  %47 = getelementptr inbounds nuw %struct.H5HF_parent_t, ptr %46, i32 0, i32 0
  %48 = load ptr, ptr %47, align 8, !tbaa !113
  %49 = getelementptr inbounds nuw %struct.H5HF_hdr_t, ptr %48, i32 0, i32 7
  %50 = getelementptr inbounds nuw %struct.H5HF_dtable_t, ptr %49, i32 0, i32 4
  %51 = load i32, ptr %50, align 8, !tbaa !117
  %52 = icmp ult i32 %43, %51
  br i1 %52, label %53, label %58

53:                                               ; preds = %21
  %54 = load ptr, ptr %5, align 8, !tbaa !108
  %55 = getelementptr inbounds nuw %struct.H5HF_iblock_cache_ud_t, ptr %54, i32 0, i32 2
  %56 = load ptr, ptr %55, align 8, !tbaa !116
  %57 = load i32, ptr %56, align 4, !tbaa !43
  br label %67

58:                                               ; preds = %21
  %59 = load ptr, ptr %5, align 8, !tbaa !108
  %60 = getelementptr inbounds nuw %struct.H5HF_iblock_cache_ud_t, ptr %59, i32 0, i32 0
  %61 = load ptr, ptr %60, align 8, !tbaa !110
  %62 = getelementptr inbounds nuw %struct.H5HF_parent_t, ptr %61, i32 0, i32 0
  %63 = load ptr, ptr %62, align 8, !tbaa !113
  %64 = getelementptr inbounds nuw %struct.H5HF_hdr_t, ptr %63, i32 0, i32 7
  %65 = getelementptr inbounds nuw %struct.H5HF_dtable_t, ptr %64, i32 0, i32 4
  %66 = load i32, ptr %65, align 8, !tbaa !117
  br label %67

67:                                               ; preds = %58, %53
  %68 = phi i32 [ %57, %53 ], [ %66, %58 ]
  %69 = load ptr, ptr %5, align 8, !tbaa !108
  %70 = getelementptr inbounds nuw %struct.H5HF_iblock_cache_ud_t, ptr %69, i32 0, i32 0
  %71 = load ptr, ptr %70, align 8, !tbaa !110
  %72 = getelementptr inbounds nuw %struct.H5HF_parent_t, ptr %71, i32 0, i32 0
  %73 = load ptr, ptr %72, align 8, !tbaa !113
  %74 = getelementptr inbounds nuw %struct.H5HF_hdr_t, ptr %73, i32 0, i32 7
  %75 = getelementptr inbounds nuw %struct.H5HF_dtable_t, ptr %74, i32 0, i32 0
  %76 = getelementptr inbounds nuw %struct.H5HF_dtable_cparam_t, ptr %75, i32 0, i32 0
  %77 = load i32, ptr %76, align 8, !tbaa !118
  %78 = mul i32 %68, %77
  %79 = load ptr, ptr %5, align 8, !tbaa !108
  %80 = getelementptr inbounds nuw %struct.H5HF_iblock_cache_ud_t, ptr %79, i32 0, i32 0
  %81 = load ptr, ptr %80, align 8, !tbaa !110
  %82 = getelementptr inbounds nuw %struct.H5HF_parent_t, ptr %81, i32 0, i32 0
  %83 = load ptr, ptr %82, align 8, !tbaa !113
  %84 = getelementptr inbounds nuw %struct.H5HF_hdr_t, ptr %83, i32 0, i32 2
  %85 = load i32, ptr %84, align 4, !tbaa !44
  %86 = icmp ugt i32 %85, 0
  br i1 %86, label %87, label %106

87:                                               ; preds = %67
  %88 = load ptr, ptr %5, align 8, !tbaa !108
  %89 = getelementptr inbounds nuw %struct.H5HF_iblock_cache_ud_t, ptr %88, i32 0, i32 0
  %90 = load ptr, ptr %89, align 8, !tbaa !110
  %91 = getelementptr inbounds nuw %struct.H5HF_parent_t, ptr %90, i32 0, i32 0
  %92 = load ptr, ptr %91, align 8, !tbaa !113
  %93 = getelementptr inbounds nuw %struct.H5HF_hdr_t, ptr %92, i32 0, i32 32
  %94 = load i8, ptr %93, align 2, !tbaa !39
  %95 = zext i8 %94 to i32
  %96 = load ptr, ptr %5, align 8, !tbaa !108
  %97 = getelementptr inbounds nuw %struct.H5HF_iblock_cache_ud_t, ptr %96, i32 0, i32 0
  %98 = load ptr, ptr %97, align 8, !tbaa !110
  %99 = getelementptr inbounds nuw %struct.H5HF_parent_t, ptr %98, i32 0, i32 0
  %100 = load ptr, ptr %99, align 8, !tbaa !113
  %101 = getelementptr inbounds nuw %struct.H5HF_hdr_t, ptr %100, i32 0, i32 31
  %102 = load i8, ptr %101, align 1, !tbaa !38
  %103 = zext i8 %102 to i32
  %104 = add i32 %95, %103
  %105 = add i32 %104, 4
  br label %115

106:                                              ; preds = %67
  %107 = load ptr, ptr %5, align 8, !tbaa !108
  %108 = getelementptr inbounds nuw %struct.H5HF_iblock_cache_ud_t, ptr %107, i32 0, i32 0
  %109 = load ptr, ptr %108, align 8, !tbaa !110
  %110 = getelementptr inbounds nuw %struct.H5HF_parent_t, ptr %109, i32 0, i32 0
  %111 = load ptr, ptr %110, align 8, !tbaa !113
  %112 = getelementptr inbounds nuw %struct.H5HF_hdr_t, ptr %111, i32 0, i32 32
  %113 = load i8, ptr %112, align 2, !tbaa !39
  %114 = zext i8 %113 to i32
  br label %115

115:                                              ; preds = %106, %87
  %116 = phi i32 [ %105, %87 ], [ %114, %106 ]
  %117 = mul i32 %78, %116
  %118 = add i32 %39, %117
  %119 = load ptr, ptr %5, align 8, !tbaa !108
  %120 = getelementptr inbounds nuw %struct.H5HF_iblock_cache_ud_t, ptr %119, i32 0, i32 2
  %121 = load ptr, ptr %120, align 8, !tbaa !116
  %122 = load i32, ptr %121, align 4, !tbaa !43
  %123 = load ptr, ptr %5, align 8, !tbaa !108
  %124 = getelementptr inbounds nuw %struct.H5HF_iblock_cache_ud_t, ptr %123, i32 0, i32 0
  %125 = load ptr, ptr %124, align 8, !tbaa !110
  %126 = getelementptr inbounds nuw %struct.H5HF_parent_t, ptr %125, i32 0, i32 0
  %127 = load ptr, ptr %126, align 8, !tbaa !113
  %128 = getelementptr inbounds nuw %struct.H5HF_hdr_t, ptr %127, i32 0, i32 7
  %129 = getelementptr inbounds nuw %struct.H5HF_dtable_t, ptr %128, i32 0, i32 4
  %130 = load i32, ptr %129, align 8, !tbaa !117
  %131 = icmp ugt i32 %122, %130
  br i1 %131, label %132, label %146

132:                                              ; preds = %115
  %133 = load ptr, ptr %5, align 8, !tbaa !108
  %134 = getelementptr inbounds nuw %struct.H5HF_iblock_cache_ud_t, ptr %133, i32 0, i32 2
  %135 = load ptr, ptr %134, align 8, !tbaa !116
  %136 = load i32, ptr %135, align 4, !tbaa !43
  %137 = load ptr, ptr %5, align 8, !tbaa !108
  %138 = getelementptr inbounds nuw %struct.H5HF_iblock_cache_ud_t, ptr %137, i32 0, i32 0
  %139 = load ptr, ptr %138, align 8, !tbaa !110
  %140 = getelementptr inbounds nuw %struct.H5HF_parent_t, ptr %139, i32 0, i32 0
  %141 = load ptr, ptr %140, align 8, !tbaa !113
  %142 = getelementptr inbounds nuw %struct.H5HF_hdr_t, ptr %141, i32 0, i32 7
  %143 = getelementptr inbounds nuw %struct.H5HF_dtable_t, ptr %142, i32 0, i32 4
  %144 = load i32, ptr %143, align 8, !tbaa !117
  %145 = sub i32 %136, %144
  br label %147

146:                                              ; preds = %115
  br label %147

147:                                              ; preds = %146, %132
  %148 = phi i32 [ %145, %132 ], [ 0, %146 ]
  %149 = load ptr, ptr %5, align 8, !tbaa !108
  %150 = getelementptr inbounds nuw %struct.H5HF_iblock_cache_ud_t, ptr %149, i32 0, i32 0
  %151 = load ptr, ptr %150, align 8, !tbaa !110
  %152 = getelementptr inbounds nuw %struct.H5HF_parent_t, ptr %151, i32 0, i32 0
  %153 = load ptr, ptr %152, align 8, !tbaa !113
  %154 = getelementptr inbounds nuw %struct.H5HF_hdr_t, ptr %153, i32 0, i32 7
  %155 = getelementptr inbounds nuw %struct.H5HF_dtable_t, ptr %154, i32 0, i32 0
  %156 = getelementptr inbounds nuw %struct.H5HF_dtable_cparam_t, ptr %155, i32 0, i32 0
  %157 = load i32, ptr %156, align 8, !tbaa !118
  %158 = mul i32 %148, %157
  %159 = load ptr, ptr %5, align 8, !tbaa !108
  %160 = getelementptr inbounds nuw %struct.H5HF_iblock_cache_ud_t, ptr %159, i32 0, i32 0
  %161 = load ptr, ptr %160, align 8, !tbaa !110
  %162 = getelementptr inbounds nuw %struct.H5HF_parent_t, ptr %161, i32 0, i32 0
  %163 = load ptr, ptr %162, align 8, !tbaa !113
  %164 = getelementptr inbounds nuw %struct.H5HF_hdr_t, ptr %163, i32 0, i32 32
  %165 = load i8, ptr %164, align 2, !tbaa !39
  %166 = zext i8 %165 to i32
  %167 = mul i32 %158, %166
  %168 = add i32 %118, %167
  %169 = zext i32 %168 to i64
  %170 = load ptr, ptr %4, align 8, !tbaa !7
  store i64 %169, ptr %170, align 8, !tbaa !40
  br label %171

171:                                              ; preds = %147, %13
  call void @llvm.lifetime.end.p0(i64 8, ptr %5) #8
  ret i32 0
}