; Function Attrs: mustprogress nofree norecurse nosync nounwind willreturn memory(read, argmem: readwrite, inaccessiblemem: none) uwtable
define internal noundef i32 @H5HF__cache_iblock_get_initial_load_size(ptr noundef readonly captures(none) %0, ptr noundef writeonly captures(none) %1) #1 {
  %3 = load i8, ptr @H5HF_init_g, align 1, !tbaa !3, !range !7, !noundef !8
  %4 = trunc nuw i8 %3 to i1
  %5 = load i8, ptr @H5_libterm_g, align 1, !range !7
  %6 = trunc nuw i8 %5 to i1
  %7 = xor i1 %6, true
  %8 = select i1 %4, i1 true, i1 %7
  br i1 %8, label %9, label %41, !prof !9

9:                                                ; preds = %2
  %10 = load ptr, ptr %0, align 8, !tbaa !96
  %11 = load ptr, ptr %10, align 8, !tbaa !100
  %12 = getelementptr inbounds nuw i8, ptr %11, i64 618
  %13 = load i8, ptr %12, align 2, !tbaa !73
  %14 = zext i8 %13 to i32
  %15 = getelementptr inbounds nuw i8, ptr %11, i64 697
  %16 = load i8, ptr %15, align 1, !tbaa !103
  %17 = zext i8 %16 to i32
  %18 = getelementptr inbounds nuw i8, ptr %0, i64 16
  %19 = load ptr, ptr %18, align 8, !tbaa !104
  %20 = load i32, ptr %19, align 4, !tbaa !17
  %21 = getelementptr inbounds nuw i8, ptr %11, i64 312
  %22 = load i32, ptr %21, align 8, !tbaa !105
  %. = tail call i32 @llvm.umin.i32(i32 %20, i32 %22)
  %23 = getelementptr inbounds nuw i8, ptr %11, i64 264
  %24 = load i32, ptr %23, align 8, !tbaa !106
  %25 = getelementptr inbounds nuw i8, ptr %11, i64 252
  %26 = load i32, ptr %25, align 4, !tbaa !75
  %.not = icmp eq i32 %26, 0
  br i1 %.not, label %33, label %27

27:                                               ; preds = %9
  %28 = getelementptr inbounds nuw i8, ptr %11, i64 617
  %29 = load i8, ptr %28, align 1, !tbaa !72
  %30 = zext i8 %29 to i32
  %31 = add nuw nsw i32 %14, 4
  %32 = add nuw nsw i32 %31, %30
  br label %33

33:                                               ; preds = %9, %27
  %34 = phi i32 [ %32, %27 ], [ %14, %9 ]
  %35 = mul i32 %34, %.
  %spec.select = tail call i32 @llvm.usub.sat.i32(i32 %20, i32 %22)
  %36 = mul i32 %spec.select, %14
  %reass.add = add i32 %35, %36
  %reass.mul = mul i32 %reass.add, %24
  %37 = add nuw nsw i32 %14, 9
  %38 = add nuw nsw i32 %37, %17
  %39 = add i32 %38, %reass.mul
  %40 = zext i32 %39 to i64
  store i64 %40, ptr %1, align 8, !tbaa !14
  br label %41

41:                                               ; preds = %33, %2
  ret i32 0
}